target datalayout = "e-m:e-p270:32:32-p271:32:32-p272:64:64-i64:64-i128:128-f80:128-n8:16:32:64-S128"
target triple = "x86_64-unknown-linux-gnu"

%class.btDiscreteDynamicsWorld = type <{ %class.btDynamicsWorld, %class.btAlignedObjectArray.0, ptr, ptr, ptr, %class.btAlignedObjectArray.0, %class.btAlignedObjectArray.4, %class.btVector3, float, float, i8, i8, i8, i8, [4 x i8], %class.btAlignedObjectArray.8, i32, i8, [3 x i8], %class.btAlignedObjectArray.12, %class.btSpinMutex, [4 x i8] }>
%class.btDynamicsWorld = type { %class.btCollisionWorld.base, ptr, ptr, ptr, %struct.btContactSolverInfo }
%class.btCollisionWorld.base = type <{ ptr, %class.btAlignedObjectArray, ptr, %struct.btDispatcherInfo, ptr, ptr, i8 }>
%class.btAlignedObjectArray = type <{ %class.btAlignedAllocator, [3 x i8], i32, i32, [4 x i8], ptr, i8, [7 x i8] }>
%class.btAlignedAllocator = type { i8 }
%struct.btDispatcherInfo = type <{ float, i32, i32, float, i8, [7 x i8], ptr, i8, i8, i8, i8, float, i8, [3 x i8], float, i8, [7 x i8] }>
%struct.btContactSolverInfo = type { %struct.btContactSolverInfoData }
%struct.btContactSolverInfoData = type { float, float, float, float, float, i32, float, float, float, float, float, float, float, float, float, float, i32, float, float, float, float, float, i32, i32, i32, float, float, float, float, i8, i8, i32, i32 }
%class.btAlignedObjectArray.0 = type <{ %class.btAlignedAllocator.1, [3 x i8], i32, i32, [4 x i8], ptr, i8, [7 x i8] }>
%class.btAlignedAllocator.1 = type { i8 }
%class.btAlignedObjectArray.4 = type <{ %class.btAlignedAllocator.5, [3 x i8], i32, i32, [4 x i8], ptr, i8, [7 x i8] }>
%class.btAlignedAllocator.5 = type { i8 }
%class.btVector3 = type { [4 x float] }
%class.btAlignedObjectArray.8 = type <{ %class.btAlignedAllocator.9, [3 x i8], i32, i32, [4 x i8], ptr, i8, [7 x i8] }>
%class.btAlignedAllocator.9 = type { i8 }
%class.btAlignedObjectArray.12 = type <{ %class.btAlignedAllocator.13, [3 x i8], i32, i32, [4 x i8], ptr, i8, [7 x i8] }>
%class.btAlignedAllocator.13 = type { i8 }
%class.btSpinMutex = type { i32 }
%class.btCollisionObject = type <{ ptr, %class.btTransform, %class.btTransform, %class.btVector3, %class.btVector3, %class.btVector3, i32, float, ptr, ptr, ptr, ptr, i32, i32, i32, i32, i32, float, float, float, float, float, float, float, i32, [4 x i8], ptr, i32, i32, i32, float, float, float, i32, [4 x i8], %class.btAlignedObjectArray.36, i32, %class.btVector3, [4 x i8] }>
%class.btTransform = type { %class.btMatrix3x3, %class.btVector3 }
%class.btMatrix3x3 = type { [3 x %class.btVector3] }
%class.btAlignedObjectArray.36 = type <{ %class.btAlignedAllocator.37, [3 x i8], i32, i32, [4 x i8], ptr, i8, [7 x i8] }>
%class.btAlignedAllocator.37 = type { i8 }
%class.btRigidBody = type { %class.btCollisionObject.base, %class.btMatrix3x3, %class.btVector3, %class.btVector3, float, %class.btVector3, %class.btVector3, %class.btVector3, %class.btVector3, %class.btVector3, %class.btVector3, float, float, i8, float, float, float, float, float, float, ptr, %class.btAlignedObjectArray.0, i32, i32, %class.btVector3, %class.btVector3, %class.btVector3, %class.btVector3, %class.btVector3, %class.btVector3, i32, i32 }
%class.btCollisionObject.base = type <{ ptr, %class.btTransform, %class.btTransform, %class.btVector3, %class.btVector3, %class.btVector3, i32, float, ptr, ptr, ptr, ptr, i32, i32, i32, i32, i32, float, float, float, float, float, float, float, i32, [4 x i8], ptr, i32, i32, i32, float, float, float, i32, [4 x i8], %class.btAlignedObjectArray.36, i32, %class.btVector3 }>

; Function Attrs: mustprogress nounwind uwtable
define linkonce_odr dso_local void @_ZN9btVector3C2Ev(ptr noundef nonnull align 4 dereferenceable(16) %this) unnamed_addr #1 comdat align 2 {
entry:
  %this.addr = alloca ptr, align 8
  store ptr %this, ptr %this.addr, align 8
  ret void
}

; Function Attrs: mustprogress uwtable
define linkonce_odr dso_local void @_ZN11btMatrix3x3C2Ev(ptr noundef nonnull align 4 dereferenceable(48) %this) unnamed_addr #2 comdat align 2 {
entry:
  %this.addr = alloca ptr, align 8
  store ptr %this, ptr %this.addr, align 8
  %this1 = load ptr, ptr %this.addr, align 8
  %m_el = getelementptr inbounds %class.btMatrix3x3, ptr %this1, i32 0, i32 0
  %array.begin = getelementptr inbounds [3 x %class.btVector3], ptr %m_el, i32 0, i32 0
  %arrayctor.end = getelementptr inbounds %class.btVector3, ptr %array.begin, i64 3
  br label %arrayctor.loop

arrayctor.loop:                                   ; preds = %arrayctor.loop, %entry
  %arrayctor.cur = phi ptr [ %array.begin, %entry ], [ %arrayctor.next, %arrayctor.loop ]
  call void @_ZN9btVector3C2Ev(ptr noundef nonnull align 4 dereferenceable(16) %arrayctor.cur)
  %arrayctor.next = getelementptr inbounds %class.btVector3, ptr %arrayctor.cur, i64 1
  %arrayctor.done = icmp eq ptr %arrayctor.next, %arrayctor.end
  br i1 %arrayctor.done, label %arrayctor.cont, label %arrayctor.loop

arrayctor.cont:                                   ; preds = %arrayctor.loop
  ret void
}

; Function Attrs: mustprogress nounwind uwtable
define linkonce_odr dso_local noundef float @_ZNK17btCollisionObject14getHitFractionEv(ptr noundef nonnull align 8 dereferenceable(372) %this) #1 comdat align 2 {
entry:
  %this.addr = alloca ptr, align 8
  store ptr %this, ptr %this.addr, align 8
  %this1 = load ptr, ptr %this.addr, align 8
  %m_hitFraction = getelementptr inbounds %class.btCollisionObject, ptr %this1, i32 0, i32 30
  %0 = load float, ptr %m_hitFraction, align 4
  ret float %0
}

; Function Attrs: mustprogress nounwind uwtable
define linkonce_odr dso_local noundef nonnull align 4 dereferenceable(16) ptr @_ZNK17btCollisionObject31getInterpolationAngularVelocityEv(ptr noundef nonnull align 8 dereferenceable(372) %this) #1 comdat align 2 {
entry:
  %this.addr = alloca ptr, align 8
  store ptr %this, ptr %this.addr, align 8
  %this1 = load ptr, ptr %this.addr, align 8
  %m_interpolationAngularVelocity = getelementptr inbounds %class.btCollisionObject, ptr %this1, i32 0, i32 4
  ret ptr %m_interpolationAngularVelocity
}

; Function Attrs: mustprogress nounwind uwtable
define linkonce_odr dso_local noundef nonnull align 4 dereferenceable(16) ptr @_ZNK17btCollisionObject30getInterpolationLinearVelocityEv(ptr noundef nonnull align 8 dereferenceable(372) %this) #1 comdat align 2 {
entry:
  %this.addr = alloca ptr, align 8
  store ptr %this, ptr %this.addr, align 8
  %this1 = load ptr, ptr %this.addr, align 8
  %m_interpolationLinearVelocity = getelementptr inbounds %class.btCollisionObject, ptr %this1, i32 0, i32 3
  ret ptr %m_interpolationLinearVelocity
}

; Function Attrs: mustprogress nounwind uwtable
define linkonce_odr dso_local noundef nonnull align 4 dereferenceable(64) ptr @_ZN17btCollisionObject30getInterpolationWorldTransformEv(ptr noundef nonnull align 8 dereferenceable(372) %this) #1 comdat align 2 {
entry:
  %this.addr = alloca ptr, align 8
  store ptr %this, ptr %this.addr, align 8
  %this1 = load ptr, ptr %this.addr, align 8
  %m_interpolationWorldTransform = getelementptr inbounds %class.btCollisionObject, ptr %this1, i32 0, i32 2
  ret ptr %m_interpolationWorldTransform
}

; Function Attrs: mustprogress uwtable
define linkonce_odr dso_local void @_ZN11btTransformC2Ev(ptr noundef nonnull align 4 dereferenceable(64) %this) unnamed_addr #2 comdat align 2 {
entry:
  %this.addr = alloca ptr, align 8
  store ptr %this, ptr %this.addr, align 8
  %this1 = load ptr, ptr %this.addr, align 8
  %m_basis = getelementptr inbounds %class.btTransform, ptr %this1, i32 0, i32 0
  call void @_ZN11btMatrix3x3C2Ev(ptr noundef nonnull align 4 dereferenceable(48) %m_basis)
  %m_origin = getelementptr inbounds %class.btTransform, ptr %this1, i32 0, i32 1
  call void @_ZN9btVector3C2Ev(ptr noundef nonnull align 4 dereferenceable(16) %m_origin)
  ret void
}

; Function Attrs: mustprogress nounwind uwtable
define linkonce_odr dso_local noundef zeroext i1 @_ZNK17btCollisionObject25isStaticOrKinematicObjectEv(ptr noundef nonnull align 8 dereferenceable(372) %this) #1 comdat align 2 {
entry:
  %this.addr = alloca ptr, align 8
  store ptr %this, ptr %this.addr, align 8
  %this1 = load ptr, ptr %this.addr, align 8
  %m_collisionFlags = getelementptr inbounds %class.btCollisionObject, ptr %this1, i32 0, i32 12
  %0 = load i32, ptr %m_collisionFlags, align 8
  %and = and i32 %0, 3
  %cmp = icmp ne i32 %and, 0
  ret i1 %cmp
}

; Function Attrs: mustprogress nounwind uwtable
define linkonce_odr dso_local noundef ptr @_ZN11btRigidBody14getMotionStateEv(ptr noundef nonnull align 8 dereferenceable(744) %this) #1 comdat align 2 {
entry:
  %this.addr = alloca ptr, align 8
  store ptr %this, ptr %this.addr, align 8
  %this1 = load ptr, ptr %this.addr, align 8
  %m_optionalMotionState = getelementptr inbounds %class.btRigidBody, ptr %this1, i32 0, i32 20
  %0 = load ptr, ptr %m_optionalMotionState, align 8
  ret ptr %0
}

; Function Attrs: mustprogress uwtable
define dso_local void @_ZN23btDiscreteDynamicsWorld28synchronizeSingleMotionStateEP11btRigidBody(ptr noundef nonnull align 8 dereferenceable(508) %this, ptr noundef %body) #2 align 2 {
entry:
  %this.addr = alloca ptr, align 8
  %body.addr = alloca ptr, align 8
  %interpolatedTransform = alloca %class.btTransform, align 4
  store ptr %this, ptr %this.addr, align 8
  store ptr %body, ptr %body.addr, align 8
  %this1 = load ptr, ptr %this.addr, align 8
  %0 = load ptr, ptr %body.addr, align 8
  %call = call noundef ptr @_ZN11btRigidBody14getMotionStateEv(ptr noundef nonnull align 8 dereferenceable(744) %0)
  %tobool = icmp ne ptr %call, null
  br i1 %tobool, label %land.lhs.true, label %if.end

land.lhs.true:                                    ; preds = %entry
  %1 = load ptr, ptr %body.addr, align 8
  %call2 = call noundef zeroext i1 @_ZNK17btCollisionObject25isStaticOrKinematicObjectEv(ptr noundef nonnull align 8 dereferenceable(372) %1)
  br i1 %call2, label %if.end, label %if.then

if.then:                                          ; preds = %land.lhs.true
  call void @_ZN11btTransformC2Ev(ptr noundef nonnull align 4 dereferenceable(64) %interpolatedTransform)
  %2 = load ptr, ptr %body.addr, align 8
  %call3 = call noundef nonnull align 4 dereferenceable(64) ptr @_ZN17btCollisionObject30getInterpolationWorldTransformEv(ptr noundef nonnull align 8 dereferenceable(372) %2)
  %3 = load ptr, ptr %body.addr, align 8
  %call4 = call noundef nonnull align 4 dereferenceable(16) ptr @_ZNK17btCollisionObject30getInterpolationLinearVelocityEv(ptr noundef nonnull align 8 dereferenceable(372) %3)
  %4 = load ptr, ptr %body.addr, align 8
  %call5 = call noundef nonnull align 4 dereferenceable(16) ptr @_ZNK17btCollisionObject31getInterpolationAngularVelocityEv(ptr noundef nonnull align 8 dereferenceable(372) %4)
  %m_latencyMotionStateInterpolation = getelementptr inbounds %class.btDiscreteDynamicsWorld, ptr %this1, i32 0, i32 17
  %5 = load i8, ptr %m_latencyMotionStateInterpolation, align 4
  %tobool6 = trunc i8 %5 to i1
  br i1 %tobool6, label %land.lhs.true7, label %cond.false

land.lhs.true7:                                   ; preds = %if.then
  %m_fixedTimeStep = getelementptr inbounds %class.btDiscreteDynamicsWorld, ptr %this1, i32 0, i32 9
  %6 = load float, ptr %m_fixedTimeStep, align 4
  %tobool8 = fcmp une float %6, 0.000000e+00
  br i1 %tobool8, label %cond.true, label %cond.false

cond.true:                                        ; preds = %land.lhs.true7
  %m_localTime = getelementptr inbounds %class.btDiscreteDynamicsWorld, ptr %this1, i32 0, i32 8
  %7 = load float, ptr %m_localTime, align 8
  %m_fixedTimeStep9 = getelementptr inbounds %class.btDiscreteDynamicsWorld, ptr %this1, i32 0, i32 9
  %8 = load float, ptr %m_fixedTimeStep9, align 4
  %sub = fsub float %7, %8
  br label %cond.end

cond.false:                                       ; preds = %land.lhs.true7, %if.then
  %m_localTime10 = getelementptr inbounds %class.btDiscreteDynamicsWorld, ptr %this1, i32 0, i32 8
  %9 = load float, ptr %m_localTime10, align 8
  %10 = load ptr, ptr %body.addr, align 8
  %call11 = call noundef float @_ZNK17btCollisionObject14getHitFractionEv(ptr noundef nonnull align 8 dereferenceable(372) %10)
  %mul = fmul float %9, %call11
  br label %cond.end

cond.end:                                         ; preds = %cond.false, %cond.true
  %cond = phi float [ %sub, %cond.true ], [ %mul, %cond.false ]
  call void @_ZN15btTransformUtil18integrateTransformERK11btTransformRK9btVector3S5_fRS0_(ptr noundef nonnull align 4 dereferenceable(64) %call3, ptr noundef nonnull align 4 dereferenceable(16) %call4, ptr noundef nonnull align 4 dereferenceable(16) %call5, float noundef %cond, ptr noundef nonnull align 4 dereferenceable(64) %interpolatedTransform)
  %11 = load ptr, ptr %body.addr, align 8
  %call12 = call noundef ptr @_ZN11btRigidBody14getMotionStateEv(ptr noundef nonnull align 8 dereferenceable(744) %11)
  %vtable = load ptr, ptr %call12, align 8
  %vfn = getelementptr inbounds ptr, ptr %vtable, i64 3
  %12 = load ptr, ptr %vfn, align 8
  call void %12(ptr noundef nonnull align 8 dereferenceable(8) %call12, ptr noundef nonnull align 4 dereferenceable(64) %interpolatedTransform)
  br label %if.end

if.end:                                           ; preds = %cond.end, %land.lhs.true, %entry
  ret void
}