; Function Attrs: mustprogress uwtable
define dso_local void @_ZN23btDiscreteDynamicsWorld28synchronizeSingleMotionStateEP11btRigidBody(ptr nocapture noundef nonnull readonly align 8 dereferenceable(508) %this, ptr noundef %body) local_unnamed_addr #0 align 2 {
entry:
  %interpolatedTransform = alloca %class.btTransform, align 4
  %m_optionalMotionState.i = getelementptr inbounds i8, ptr %body, i64 592
  %0 = load ptr, ptr %m_optionalMotionState.i, align 8
  %tobool.not = icmp eq ptr %0, null
  br i1 %tobool.not, label %if.end, label %land.lhs.true

land.lhs.true:                                    ; preds = %entry
  %m_collisionFlags.i = getelementptr inbounds i8, ptr %body, i64 224
  %1 = load i32, ptr %m_collisionFlags.i, align 8
  %and.i = and i32 %1, 3
  %cmp.i.not = icmp eq i32 %and.i, 0
  br i1 %cmp.i.not, label %if.then, label %if.end

if.then:                                          ; preds = %land.lhs.true
  %m_interpolationWorldTransform.i = getelementptr inbounds i8, ptr %body, i64 72
  %m_interpolationLinearVelocity.i = getelementptr inbounds i8, ptr %body, i64 136
  %m_interpolationAngularVelocity.i = getelementptr inbounds i8, ptr %body, i64 152
  %m_latencyMotionStateInterpolation = getelementptr inbounds i8, ptr %this, i64 468
  %2 = load i8, ptr %m_latencyMotionStateInterpolation, align 4
  %3 = and i8 %2, 1
  %tobool6.not = icmp eq i8 %3, 0
  br i1 %tobool6.not, label %cond.false, label %land.lhs.true7

land.lhs.true7:                                   ; preds = %if.then
  %m_fixedTimeStep = getelementptr inbounds i8, ptr %this, i64 420
  %4 = load float, ptr %m_fixedTimeStep, align 4
  %tobool8 = fcmp une float %4, 0.000000e+00
  br i1 %tobool8, label %cond.true, label %cond.false

cond.true:                                        ; preds = %land.lhs.true7
  %m_localTime = getelementptr inbounds i8, ptr %this, i64 416
  %5 = load float, ptr %m_localTime, align 8
  %sub = fsub float %5, %4
  br label %cond.end

cond.false:                                       ; preds = %land.lhs.true7, %if.then
  %m_localTime10 = getelementptr inbounds i8, ptr %this, i64 416
  %6 = load float, ptr %m_localTime10, align 8
  %m_hitFraction.i = getelementptr inbounds i8, ptr %body, i64 300
  %7 = load float, ptr %m_hitFraction.i, align 4
  %mul = fmul float %6, %7
  br label %cond.end

cond.end:                                         ; preds = %cond.false, %cond.true
  %cond = phi float [ %sub, %cond.true ], [ %mul, %cond.false ]
  call void @_ZN15btTransformUtil18integrateTransformERK11btTransformRK9btVector3S5_fRS0_(ptr noundef nonnull align 4 dereferenceable(64) %m_interpolationWorldTransform.i, ptr noundef nonnull align 4 dereferenceable(16) %m_interpolationLinearVelocity.i, ptr noundef nonnull align 4 dereferenceable(16) %m_interpolationAngularVelocity.i, float noundef %cond, ptr noundef nonnull align 4 dereferenceable(64) %interpolatedTransform)
  %8 = load ptr, ptr %m_optionalMotionState.i, align 8
  %vtable = load ptr, ptr %8, align 8
  %vfn = getelementptr inbounds i8, ptr %vtable, i64 24
  %9 = load ptr, ptr %vfn, align 8
  call void %9(ptr noundef nonnull align 8 dereferenceable(8) %8, ptr noundef nonnull align 4 dereferenceable(64) %interpolatedTransform)
  br label %if.end

if.end:                                           ; preds = %cond.end, %land.lhs.true, %entry
  ret void
}